; Function Attrs: mustprogress nounwind uwtable
define dso_local noundef zeroext i1 @_ZN4llvm8TGParser22ParseOptionalRangeListERNS_15SmallVectorImplIjEE(ptr noundef nonnull align 8 dereferenceable(394) %0, ptr noundef nonnull align 8 dereferenceable(16) %1) local_unnamed_addr #0 align 2 {
  %3 = alloca %"class.llvm::SMLoc", align 8
  %4 = alloca %"class.llvm::SMLoc", align 8
  %5 = alloca %"class.llvm::Twine", align 8
  %6 = alloca %"class.llvm::Twine", align 8
  %7 = tail call ptr @_ZNK4llvm7TGLexer6getLocEv(ptr noundef nonnull align 8 dereferenceable(192) %0) #17
  %8 = getelementptr inbounds nuw i8, ptr %0, i64 40
  %9 = load i32, ptr %8, align 8
  %10 = icmp eq i32 %9, 10
  br i1 %10, label %11, label %_ZN4llvm8TGParser7consumeENS_5tgtok7TokKindE.exit

11:                                               ; preds = %2
  %12 = getelementptr inbounds nuw i8, ptr %0, i64 8
  %13 = load ptr, ptr %12, align 8
  %14 = getelementptr inbounds nuw i8, ptr %0, i64 16
  %15 = load ptr, ptr %14, align 8
  %16 = icmp eq ptr %13, %15
  %17 = tail call noundef i32 @_ZN4llvm7TGLexer8LexTokenEb(ptr noundef nonnull align 8 dereferenceable(394) %0, i1 noundef zeroext %16) #17
  store i32 %17, ptr %8, align 8
  %18 = tail call noundef zeroext i1 @_ZN4llvm8TGParser15ParseRangePieceERNS_15SmallVectorImplIjEEPNS_9TypedInitE(ptr noundef nonnull align 8 dereferenceable(394) %0, ptr noundef nonnull align 8 dereferenceable(16) %1, ptr noundef null)
  br i1 %18, label %_ZN4llvm8TGParser7consumeENS_5tgtok7TokKindE.exit.sink.split.i, label %.preheader.i

.preheader.i:                                     ; preds = %11, %21
  %19 = load i32, ptr %8, align 8
  %20 = icmp eq i32 %19, 14
  br i1 %20, label %21, label %_ZN4llvm8TGParser14ParseRangeListERNS_15SmallVectorImplIjEE.exit

21:                                               ; preds = %.preheader.i
  %22 = load ptr, ptr %12, align 8
  %23 = load ptr, ptr %14, align 8
  %24 = icmp eq ptr %22, %23
  %25 = tail call noundef i32 @_ZN4llvm7TGLexer8LexTokenEb(ptr noundef nonnull align 8 dereferenceable(394) %0, i1 noundef zeroext %24) #17
  store i32 %25, ptr %8, align 8
  %26 = tail call noundef zeroext i1 @_ZN4llvm8TGParser15ParseRangePieceERNS_15SmallVectorImplIjEEPNS_9TypedInitE(ptr noundef nonnull align 8 dereferenceable(394) %0, ptr noundef nonnull align 8 dereferenceable(16) %1, ptr noundef null)
  br i1 %26, label %_ZN4llvm8TGParser7consumeENS_5tgtok7TokKindE.exit.sink.split.i, label %.preheader.i, !llvm.loop !261

_ZN4llvm8TGParser7consumeENS_5tgtok7TokKindE.exit.sink.split.i: ; preds = %21, %11
  %27 = tail call noundef i64 @_ZNK4llvm15SmallVectorBaseIjE4sizeEv(ptr noundef nonnull align 8 dereferenceable(16) %1) #17
  %28 = getelementptr inbounds nuw i8, ptr %1, i64 8
  store i32 0, ptr %28, align 8
  br label %_ZN4llvm8TGParser14ParseRangeListERNS_15SmallVectorImplIjEE.exit

_ZN4llvm8TGParser14ParseRangeListERNS_15SmallVectorImplIjEE.exit: ; preds = %.preheader.i, %_ZN4llvm8TGParser7consumeENS_5tgtok7TokKindE.exit.sink.split.i
  %29 = tail call noundef zeroext i1 @_ZNK4llvm15SmallVectorBaseIjE5emptyEv(ptr noundef nonnull align 8 dereferenceable(16) %1) #17
  br i1 %29, label %_ZN4llvm8TGParser7consumeENS_5tgtok7TokKindE.exit, label %30

30:                                               ; preds = %_ZN4llvm8TGParser14ParseRangeListERNS_15SmallVectorImplIjEE.exit
  %31 = load i32, ptr %8, align 8
  %32 = icmp eq i32 %31, 11
  br i1 %32, label %_ZN4llvm8TGParser7consumeENS_5tgtok7TokKindE.exit5.thread, label %_ZN4llvm8TGParser7consumeENS_5tgtok7TokKindE.exit5

_ZN4llvm8TGParser7consumeENS_5tgtok7TokKindE.exit5.thread: ; preds = %30
  %33 = load ptr, ptr %12, align 8
  %34 = load ptr, ptr %14, align 8
  %35 = icmp eq ptr %33, %34
  %36 = tail call noundef i32 @_ZN4llvm7TGLexer8LexTokenEb(ptr noundef nonnull align 8 dereferenceable(394) %0, i1 noundef zeroext %35) #17
  store i32 %36, ptr %8, align 8
  br label %_ZN4llvm8TGParser7consumeENS_5tgtok7TokKindE.exit

_ZN4llvm8TGParser7consumeENS_5tgtok7TokKindE.exit5: ; preds = %30
  %37 = getelementptr inbounds nuw i8, ptr %5, i64 32
  %38 = getelementptr inbounds nuw i8, ptr %5, i64 33
  store i8 1, ptr %38, align 1
  store ptr @.str.45, ptr %5, align 8
  store i8 3, ptr %37, align 8
  %39 = tail call ptr @_ZNK4llvm7TGLexer6getLocEv(ptr noundef nonnull align 8 dereferenceable(394) %0) #17
  call void @llvm.lifetime.start.p0(i64 8, ptr nonnull %4)
  store ptr %39, ptr %4, align 8
  call void @_ZN4llvm10PrintErrorENS_8ArrayRefINS_5SMLocEEERKNS_5TwineE(ptr nonnull %4, i64 1, ptr noundef nonnull align 8 dereferenceable(34) %5) #17
  call void @llvm.lifetime.end.p0(i64 8, ptr nonnull %4)
  %40 = getelementptr inbounds nuw i8, ptr %6, i64 32
  %41 = getelementptr inbounds nuw i8, ptr %6, i64 33
  store i8 1, ptr %41, align 1
  store ptr @.str.46, ptr %6, align 8
  store i8 3, ptr %40, align 8
  call void @llvm.lifetime.start.p0(i64 8, ptr nonnull %3)
  store ptr %7, ptr %3, align 8
  call void @_ZN4llvm10PrintErrorENS_8ArrayRefINS_5SMLocEEERKNS_5TwineE(ptr nonnull %3, i64 1, ptr noundef nonnull align 8 dereferenceable(34) %6) #17
  call void @llvm.lifetime.end.p0(i64 8, ptr nonnull %3)
  br label %_ZN4llvm8TGParser7consumeENS_5tgtok7TokKindE.exit

_ZN4llvm8TGParser7consumeENS_5tgtok7TokKindE.exit: ; preds = %_ZN4llvm8TGParser7consumeENS_5tgtok7TokKindE.exit5.thread, %2, %_ZN4llvm8TGParser14ParseRangeListERNS_15SmallVectorImplIjEE.exit, %_ZN4llvm8TGParser7consumeENS_5tgtok7TokKindE.exit5
  %.0 = phi i1 [ true, %_ZN4llvm8TGParser7consumeENS_5tgtok7TokKindE.exit5 ], [ true, %_ZN4llvm8TGParser14ParseRangeListERNS_15SmallVectorImplIjEE.exit ], [ false, %2 ], [ false, %_ZN4llvm8TGParser7consumeENS_5tgtok7TokKindE.exit5.thread ]
  ret i1 %.0
}